target datalayout = "e-m:e-p270:32:32-p271:32:32-p272:64:64-i64:64-i128:128-f80:128-n8:16:32:64-S128"
target triple = "x86_64-pc-linux-gnu"

%struct.BEValue = type { i8, i32, ptr, ptr, ptr }

@type_anyfault = external global ptr, align 8
@.str.5 = private unnamed_addr constant [7 x i8] c"optval\00", align 1

; Function Attrs: nounwind uwtable
define dso_local void @llvm_value_fold_optional(ptr noundef %0, ptr noundef %1) #0 {
  %3 = alloca ptr, align 8
  %4 = alloca ptr, align 8
  store ptr %0, ptr %3, align 8
  store ptr %1, ptr %4, align 8
  %5 = load ptr, ptr %4, align 8
  %6 = load i8, ptr %5, align 8
  %7 = and i8 %6, 31
  %8 = zext i8 %7 to i32
  %9 = icmp eq i32 %8, 2
  br i1 %9, label %10, label %22

10:                                               ; preds = %2
  %11 = load ptr, ptr %3, align 8
  %12 = load ptr, ptr %3, align 8
  %13 = load ptr, ptr @type_anyfault, align 8
  %14 = load ptr, ptr %4, align 8
  %15 = getelementptr inbounds %struct.BEValue, ptr %14, i32 0, i32 4
  %16 = load ptr, ptr %15, align 8
  %17 = call ptr @llvm_load_abi_alignment(ptr noundef %12, ptr noundef %13, ptr noundef %16, ptr noundef @.str.5)
  call void @llvm_emit_jump_to_optional_exit(ptr noundef %11, ptr noundef %17)
  %18 = load ptr, ptr %4, align 8
  %19 = load i8, ptr %18, align 8
  %20 = and i8 %19, -32
  %21 = or i8 %20, 1
  store i8 %21, ptr %18, align 8
  br label %22

22:                                               ; preds = %10, %2
  ret void
}