; Function Attrs: nounwind uwtable
define dso_local void @llvm_value_fold_optional(ptr noundef %0, ptr noundef captures(none) %1) local_unnamed_addr #0 {
  %3 = load i8, ptr %1, align 8
  %4 = and i8 %3, 31
  %5 = icmp eq i8 %4, 2
  br i1 %5, label %6, label %14

6:                                                ; preds = %2
  %7 = load ptr, ptr @type_anyfault, align 8
  %8 = getelementptr inbounds nuw i8, ptr %1, i64 24
  %9 = load ptr, ptr %8, align 8
  %10 = tail call ptr @llvm_load_abi_alignment(ptr noundef %0, ptr noundef %7, ptr noundef %9, ptr noundef nonnull @.str.5) #3
  tail call void @llvm_emit_jump_to_optional_exit(ptr noundef %0, ptr noundef %10)
  %11 = load i8, ptr %1, align 8
  %12 = and i8 %11, -32
  %13 = or disjoint i8 %12, 1
  store i8 %13, ptr %1, align 8
  br label %14

14:                                               ; preds = %6, %2
  ret void
}